#include <math.h>
#include <stdio.h>
#include <stdlib.h>
#include <string.h>

int main()
{
	int n,i,a[101];
	int b;
	scanf("%d",&n);
	for(i=0;i<n;i++){
	{
		scanf("%d",&b);
	}if(a[b]==1){
		a[b]=1;}
	else
	{ if(i!=0){
		printf(" ");}
	printf("%d",b);
	a[b]=1;
	}
	}
	return 0;
}
